target datalayout = "e-m:e-p270:32:32-p271:32:32-p272:64:64-i64:64-i128:128-f80:128-n8:16:32:64-S128"
target triple = "x86_64-unknown-linux-gnu"

%struct.BdrvDirtyBitmap = type { ptr, ptr, i8, ptr, ptr, i64, i8, i32, i8, i8, i8, i8, %struct.anon }
%struct.anon = type { ptr, ptr }

@.str.1 = private unnamed_addr constant [29 x i8] c"../qemu/block/dirty-bitmap.c\00", align 1
@.str.21 = private unnamed_addr constant [36 x i8] c"!bdrv_dirty_bitmap_readonly(bitmap)\00", align 1
@__PRETTY_FUNCTION__.bdrv_set_dirty_bitmap_locked = private unnamed_addr constant [71 x i8] c"void bdrv_set_dirty_bitmap_locked(BdrvDirtyBitmap *, int64_t, int64_t)\00", align 1

; Function Attrs: nounwind sspstrong uwtable
define dso_local zeroext i1 @bdrv_dirty_bitmap_readonly(ptr noundef %bitmap) #0 {
entry:
  %bitmap.addr = alloca ptr, align 8
  store ptr %bitmap, ptr %bitmap.addr, align 8
  %0 = load ptr, ptr %bitmap.addr, align 8
  %readonly = getelementptr inbounds %struct.BdrvDirtyBitmap, ptr %0, i32 0, i32 8
  %1 = load i8, ptr %readonly, align 8
  %tobool = trunc i8 %1 to i1
  ret i1 %tobool
}

; Function Attrs: nounwind sspstrong uwtable
define dso_local void @bdrv_set_dirty_bitmap_locked(ptr noundef %bitmap, i64 noundef %offset, i64 noundef %bytes) #0 {
entry:
  %bitmap.addr = alloca ptr, align 8
  %offset.addr = alloca i64, align 8
  %bytes.addr = alloca i64, align 8
  store ptr %bitmap, ptr %bitmap.addr, align 8
  store i64 %offset, ptr %offset.addr, align 8
  store i64 %bytes, ptr %bytes.addr, align 8
  %0 = load ptr, ptr %bitmap.addr, align 8
  %call = call zeroext i1 @bdrv_dirty_bitmap_readonly(ptr noundef %0)
  br i1 %call, label %if.else, label %if.then

if.then:                                          ; preds = %entry
  br label %if.end

if.else:                                          ; preds = %entry
  call void @__assert_fail(ptr noundef @.str.21, ptr noundef @.str.1, i32 noundef 546, ptr noundef @__PRETTY_FUNCTION__.bdrv_set_dirty_bitmap_locked) #11
  unreachable

if.end:                                           ; preds = %if.then
  %1 = load ptr, ptr %bitmap.addr, align 8
  %bitmap1 = getelementptr inbounds %struct.BdrvDirtyBitmap, ptr %1, i32 0, i32 1
  %2 = load ptr, ptr %bitmap1, align 8
  %3 = load i64, ptr %offset.addr, align 8
  %4 = load i64, ptr %bytes.addr, align 8
  call void @hbitmap_set(ptr noundef %2, i64 noundef %3, i64 noundef %4)
  ret void
}